Certificate:
    Data:
        Version: 3 (0x2)
        Serial Number: 4096 (0x1000)
        Signature Algorithm: sha256WithRSAEncryption
        Issuer: CN=TokenTimer Test CA
        Validity
            Not Before: Jan  1 00:00:00 2020 GMT
            Not After : Jan  2 00:00:00 2020 GMT
        Subject: CN=expired.example.com
        Subject Public Key Info:
            Public Key Algorithm: rsaEncryption
                Public-Key: (2048 bit)
                Modulus:
                    00:a1:36:ec:b6:4b:2e:91:c0:ab:9c:8e:bc:d4:2a:
                    a9:7f:7b:39:f6:86:2a:c0:3d:b6:fc:c0:01:cd:a5:
                    fb:42:72:c9:40:91:d0:6a:e9:1e:cc:2b:38:0c:3e:
                    d7:13:8b:37:57:22:68:7e:56:a3:13:d8:f0:ea:31:
                    f2:10:75:90:0a:ff:9d:e6:72:a3:73:64:5c:6e:63:
                    0d:62:14:86:14:9c:27:1a:05:67:04:0c:a3:86:7a:
                    4f:c4:d3:e4:a7:fc:00:1a:4c:c1:70:47:b6:f5:65:
                    1e:64:60:32:97:53:02:05:58:d9:50:bd:26:f0:80:
                    49:c0:af:38:b6:b7:84:b4:df:21:6e:f8:b4:eb:8a:
                    45:5e:a2:02:4d:9a:e4:e5:85:94:e9:80:40:d4:c8:
                    5d:8e:16:a2:38:eb:8a:d3:0a:03:d0:9b:45:33:cf:
                    36:93:38:49:d5:1a:89:6e:c7:d1:bb:2f:80:c1:9c:
                    e0:38:41:c2:24:82:c9:58:c6:27:5a:02:78:0e:40:
                    b3:0e:46:0b:32:32:b6:eb:b0:21:28:57:c8:52:08:
                    41:36:76:6f:ab:52:9c:93:e7:4c:c0:73:b6:97:50:
                    e1:ba:c9:c4:a0:07:d0:de:cc:90:d0:fb:38:e1:68:
                    96:02:a8:36:78:07:44:50:fc:5c:fd:f5:79:64:90:
                    c7:cd
                Exponent: 65537 (0x10001)
        X509v3 extensions:
            X509v3 Subject Alternative Name: 
                DNS:expired.example.com
            X509v3 Basic Constraints: 
                CA:FALSE
            X509v3 Key Usage: 
                Digital Signature, Key Encipherment
            X509v3 Extended Key Usage: 
                TLS Web Server Authentication
            X509v3 Subject Key Identifier: 
                68:D1:F1:C8:6D:03:00:B5:7B:2A:2E:40:59:68:B8:E2:72:28:42:FA
            X509v3 Authority Key Identifier: 
                6B:E4:3A:32:25:7B:33:21:D0:5C:EF:F1:F6:AC:C2:A4:02:C3:86:85
    Signature Algorithm: sha256WithRSAEncryption
    Signature Value:
        b2:4d:d4:13:5c:c4:39:9a:67:ea:3c:8d:15:ce:b4:14:0b:a9:
        31:c0:7b:27:cd:17:bb:25:37:47:b8:75:05:54:c6:d9:b6:78:
        37:3b:4e:c7:40:17:f4:55:05:0b:ad:fa:de:07:5e:68:96:2d:
        14:4c:0d:33:90:a0:44:d1:f8:a2:92:8d:39:80:12:64:75:6e:
        0d:d0:86:ee:21:9b:ef:0a:2e:7f:87:5a:36:87:59:07:f2:17:
        49:df:ea:ae:83:a9:47:c2:c5:13:b3:ef:c1:eb:55:3e:15:7a:
        5c:82:55:72:8d:8f:9b:d2:23:ce:15:2e:2a:d4:c9:54:ac:c3:
        d9:dd:41:b3:da:d1:bf:47:65:23:f7:ba:48:29:9c:f0:62:f5:
        d3:f4:0d:0b:97:ce:8f:5f:a0:f3:98:51:a4:95:61:ba:f0:37:
        a1:08:6b:44:1b:20:ef:cd:83:68:44:68:99:23:93:67:b9:a0:
        d6:65:89:25:63:89:4a:6f:69:68:4c:7a:d3:6b:0b:e6:27:dc:
        0e:5e:ef:8c:e2:34:a8:ee:33:6c:9c:3b:95:b6:13:eb:c9:1f:
        22:2d:71:28:29:06:70:52:44:a9:e6:ad:3b:2a:37:14:ef:d8:
        1b:d2:1c:73:2a:bc:a1:4c:00:5f:d0:4b:dc:10:36:d0:16:04:
        f0:23:2f:8e
-----BEGIN CERTIFICATE-----
MIIDSDCCAjCgAwIBAgICEAAwDQYJKoZIhvcNAQELBQAwHTEbMBkGA1UEAwwSVG9r
ZW5UaW1lciBUZXN0IENBMB4XDTIwMDEwMTAwMDAwMFoXDTIwMDEwMjAwMDAwMFow
HjEcMBoGA1UEAwwTZXhwaXJlZC5leGFtcGxlLmNvbTCCASIwDQYJKoZIhvcNAQEB
BQADggEPADCCAQoCggEBAKE27LZLLpHAq5yOvNQqqX97OfaGKsA9tvzAAc2l+0Jy
yUCR0GrpHswrOAw+1xOLN1ciaH5WoxPY8Oox8hB1kAr/neZyo3NkXG5jDWIUhhSc
JxoFZwQMo4Z6T8TT5Kf8ABpMwXBHtvVlHmRgMpdTAgVY2VC9JvCAScCvOLa3hLTf
IW74tOuKRV6iAk2a5OWFlOmAQNTIXY4WojjritMKA9CbRTPPNpM4SdUaiW7H0bsv
gMGc4DhBwiSCyVjGJ1oCeA5Asw5GCzIytuuwIShXyFIIQTZ2b6tSnJPnTMBztpdQ
4brJxKAH0N7MkND7OOFolgKoNngHRFD8XP31eWSQx80CAwEAAaOBkDCBjTAeBgNV
HREEFzAVghNleHBpcmVkLmV4YW1wbGUuY29tMAkGA1UdEwQCMAAwCwYDVR0PBAQD
AgWgMBMGA1UdJQQMMAoGCCsGAQUFBwMBMB0GA1UdDgQWBBRo0fHIbQMAtXsqLkBZ
aLjicihC+jAfBgNVHSMEGDAWgBRr5DoyJXszIdBc7/H2rMKkAsOGhTANBgkqhkiG
9w0BAQsFAAOCAQEAsk3UE1zEOZpn6jyNFc60FAupMcB7J80XuyU3R7h1BVTG2bZ4
NztOx0AX9FUFC6363gdeaJYtFEwNM5CgRNH4opKNOYASZHVuDdCG7iGb7wouf4da
NodZB/IXSd/qroOpR8LFE7PvwetVPhV6XIJVco2Pm9IjzhUuKtTJVKzD2d1Bs9rR
v0dlI/e6SCmc8GL10/QNC5fOj1+g85hRpJVhuvA3oQhrRBsg782DaERomSOTZ7mg
1mWJJWOJSm9paEx602sL5ifcDl7vjOI0qO4zbJw7lbYT68kfIi1xKCkGcFJEqeat
Oyo3FO/YG9Iccyq8oUwAX9BL3BA20BYE8CMvjg==
-----END CERTIFICATE-----
