Certificate:
    Data:
        Version: 3 (0x2)
        Serial Number: 4097 (0x1001)
        Signature Algorithm: sha256WithRSAEncryption
        Issuer: CN=TokenTimer Test CA
        Validity
            Not Before: Jan  1 00:00:00 2035 GMT
            Not After : Jan  1 00:00:00 2036 GMT
        Subject: CN=future.example.com
        Subject Public Key Info:
            Public Key Algorithm: rsaEncryption
                Public-Key: (2048 bit)
                Modulus:
                    00:b6:ab:33:88:a7:a0:87:77:cc:c6:6a:42:f0:25:
                    6c:88:e8:bc:ce:21:dc:0c:5f:49:5d:08:ef:2f:52:
                    ae:03:5d:c4:ae:96:70:c0:40:5a:ae:5b:b8:de:e3:
                    85:28:4e:d6:89:20:2a:23:49:d5:7b:d0:39:32:d3:
                    a6:40:75:85:d2:a7:d2:52:07:c0:84:23:5d:90:b9:
                    dd:f2:2c:a2:7a:21:cc:e7:27:73:ee:fc:6b:c7:09:
                    2f:e9:49:13:cb:61:b3:37:41:19:3e:c3:07:1f:73:
                    a8:8f:00:b5:9f:5f:e8:6d:7d:48:2d:0d:87:13:99:
                    25:40:26:ee:ed:a8:07:94:a1:1e:83:5a:8e:07:95:
                    df:fb:be:73:45:fa:a1:54:37:1c:50:6d:25:c9:54:
                    75:dc:20:c3:7c:b8:02:8c:22:05:98:f9:0e:e0:c7:
                    ea:b8:37:1f:28:93:3a:a7:cf:34:c4:23:1b:8b:35:
                    32:a8:ee:af:33:44:7e:df:66:07:62:4d:05:e4:68:
                    7b:82:8f:aa:8f:60:8f:4e:41:55:bf:a3:a1:ac:5d:
                    06:36:b3:f0:30:ec:b7:ad:32:de:ea:97:46:d2:e3:
                    24:52:dc:10:69:6f:9f:c4:06:eb:ce:a1:27:c4:4d:
                    28:32:92:7d:96:d4:2a:3f:b0:84:9a:f0:ef:4d:25:
                    89:f3
                Exponent: 65537 (0x10001)
        X509v3 extensions:
            X509v3 Subject Alternative Name: 
                DNS:future.example.com
            X509v3 Basic Constraints: 
                CA:FALSE
            X509v3 Key Usage: 
                Digital Signature, Key Encipherment
            X509v3 Extended Key Usage: 
                TLS Web Server Authentication
            X509v3 Subject Key Identifier: 
                28:A7:8F:FC:AD:54:42:40:A3:50:EB:FA:7D:53:0C:2E:69:72:BA:9F
            X509v3 Authority Key Identifier: 
                6B:E4:3A:32:25:7B:33:21:D0:5C:EF:F1:F6:AC:C2:A4:02:C3:86:85
    Signature Algorithm: sha256WithRSAEncryption
    Signature Value:
        27:49:e7:87:da:02:5a:9f:2b:cd:ff:1d:8a:55:ce:eb:58:36:
        65:2d:4b:0e:e2:9e:99:3f:48:d4:6f:ef:21:34:9a:31:51:70:
        21:b3:22:52:1d:97:e2:0c:a5:4f:44:c3:25:0c:19:ec:58:52:
        88:87:9e:05:14:2c:e9:d9:ef:a6:f8:2f:fa:80:77:e3:69:bf:
        b6:13:ab:82:52:e9:82:5a:fa:f7:cb:f3:92:6e:14:3b:6c:5b:
        38:2d:1e:48:57:cd:aa:87:c1:91:07:ef:70:34:5c:68:fe:1a:
        73:bd:07:9f:3f:88:b6:87:4f:ba:99:c9:8a:b5:d7:c4:55:27:
        bc:cf:50:0f:17:7d:fa:9b:15:af:37:62:5d:4d:ca:7d:41:ac:
        69:68:58:59:4c:a2:e7:83:29:c0:31:9e:85:17:37:43:cc:c7:
        c9:76:aa:83:b3:78:74:1d:f9:f1:64:bd:14:23:b1:de:f6:38:
        23:39:40:82:65:36:01:98:cb:24:7c:1d:b3:59:33:9e:bb:75:
        d1:5e:53:62:3a:36:3c:87:5b:e3:3a:e1:e9:1c:6c:62:ee:98:
        e3:af:65:e3:f1:8f:d3:dc:c9:d9:c7:7d:7d:a2:af:9a:c9:70:
        68:37:40:73:65:d7:7c:fb:32:51:ce:e4:81:7d:2a:b9:a7:93:
        a4:83:3f:29
-----BEGIN CERTIFICATE-----
MIIDRjCCAi6gAwIBAgICEAEwDQYJKoZIhvcNAQELBQAwHTEbMBkGA1UEAwwSVG9r
ZW5UaW1lciBUZXN0IENBMB4XDTM1MDEwMTAwMDAwMFoXDTM2MDEwMTAwMDAwMFow
HTEbMBkGA1UEAwwSZnV0dXJlLmV4YW1wbGUuY29tMIIBIjANBgkqhkiG9w0BAQEF
AAOCAQ8AMIIBCgKCAQEAtqsziKegh3fMxmpC8CVsiOi8ziHcDF9JXQjvL1KuA13E
rpZwwEBarlu43uOFKE7WiSAqI0nVe9A5MtOmQHWF0qfSUgfAhCNdkLnd8iyieiHM
5ydz7vxrxwkv6UkTy2GzN0EZPsMHH3OojwC1n1/obX1ILQ2HE5klQCbu7agHlKEe
g1qOB5Xf+75zRfqhVDccUG0lyVR13CDDfLgCjCIFmPkO4MfquDcfKJM6p880xCMb
izUyqO6vM0R+32YHYk0F5Gh7go+qj2CPTkFVv6OhrF0GNrPwMOy3rTLe6pdG0uMk
UtwQaW+fxAbrzqEnxE0oMpJ9ltQqP7CEmvDvTSWJ8wIDAQABo4GPMIGMMB0GA1Ud
EQQWMBSCEmZ1dHVyZS5leGFtcGxlLmNvbTAJBgNVHRMEAjAAMAsGA1UdDwQEAwIF
oDATBgNVHSUEDDAKBggrBgEFBQcDATAdBgNVHQ4EFgQUKKeP/K1UQkCjUOv6fVMM
Lmlyup8wHwYDVR0jBBgwFoAUa+Q6MiV7MyHQXO/x9qzCpALDhoUwDQYJKoZIhvcN
AQELBQADggEBACdJ54faAlqfK83/HYpVzutYNmUtSw7inpk/SNRv7yE0mjFRcCGz
IlIdl+IMpU9EwyUMGexYUoiHngUULOnZ76b4L/qAd+Npv7YTq4JS6YJa+vfL85Ju
FDtsWzgtHkhXzaqHwZEH73A0XGj+GnO9B58/iLaHT7qZyYq118RVJ7zPUA8Xffqb
Fa83Yl1Nyn1BrGloWFlMoueDKcAxnoUXN0PMx8l2qoOzeHQd+fFkvRQjsd72OCM5
QIJlNgGYyyR8HbNZM567ddFeU2I6NjyHW+M64ekcbGLumOOvZePxj9PcydnHfX2i
r5rJcGg3QHNl13z7MlHO5IF9Krmnk6SDPyk=
-----END CERTIFICATE-----
